EXPORTS
    _ZN2sf11VertexArrayD1Ev @1
    _ZN2sf15ContextSettingsC1Ejjjjj @2
    _ZN2sf4RectIiEC1Eiiii @3
    _ZN2sf4RectIiEC1Ev @4
    _ZN2sf4TextD1Ev @5
    _ZN2sf6SpriteD1Ev @6
    _ZN2sf6StringD1Ev @7
    _ZN2sf7Vector2IfEC1Eff @8
    _ZN2sf7Vector2IjEC1Ejj @9
    _ZN2sf7Vector2IjEC1Ev @10
    _ZN2sf8DrawableD0Ev @11
    _ZN2sf8DrawableD1Ev @12
    _ZN2sf8DrawableD2Ev @13
    _ZN3dig11Application12CreateWindowEv @14
    _ZN3dig11Application13SetFullscreenEb @15
    _ZN3dig11Application13SetFullscreenEv @16
    _ZN3dig11Application13SetResolutionEN2sf7Vector2IjEE @17
    _ZN3dig11Application5SetupEN2sf7Vector2IjEERKSs @18
    _ZN3dig11Application6UpdateEv @19
    _ZN3dig11Application7EndDrawEv @20
    _ZN3dig11Application9GetWindowEv @21
    _ZN3dig11Application9SetHeaderERKSs @22
    _ZN3dig11Application9StartDrawEv @23
    _ZN3dig11Application9isRunningEv @24
    _ZN3dig11ApplicationC1EN2sf7Vector2IjEERKSs @25
    _ZN3dig11ApplicationC1Ev @26
    _ZN3dig11ApplicationC2EN2sf7Vector2IjEERKSs @27
    _ZN3dig11ApplicationC2Ev @28
    _ZN3dig11ApplicationD1Ev @29
    _ZN3dig11ApplicationD2Ev @30
    _ZN3dig11FontManager10CreateFontERKSs @31
    _ZN3dig11FontManager11DestroyFontEj @32
    _ZN3dig11FontManager7GetFontEj @33
    _ZN3dig11FontManagerC1Ev @34
    _ZN3dig11FontManagerC2Ev @35
    _ZN3dig11FontManagerD1Ev @36
    _ZN3dig11FontManagerD2Ev @37
    _ZN3dig12SoundManager11CreateSoundERKSs @38
    _ZN3dig12SoundManager12DestroySoundEi @39
    _ZN3dig12SoundManager13GetSoundGroupEv @40
    _ZN3dig12SoundManager13GetSoundIndexEi @41
    _ZN3dig12SoundManagerC1Ev @42
    _ZN3dig12SoundManagerC2Ev @43
    _ZN3dig12SoundManagerD1Ev @44
    _ZN3dig12SoundManagerD2Ev @45
    _ZN3dig15GraphicsManager13CreateTextureERKSs @46
    _ZN3dig15GraphicsManager14DestroyTextureEi @47
    _ZN3dig15GraphicsManager15GetTextureGroupEv @48
    _ZN3dig15GraphicsManager15GetTextureIndexEi @49
    _ZN3dig15GraphicsManagerC1Ev @50
    _ZN3dig15GraphicsManagerC2Ev @51
    _ZN3dig15GraphicsManagerD1Ev @52
    _ZN3dig15GraphicsManagerD2Ev @53
    _ZN3dig5input5KeyUpERNS0_22KEYBOARD_CONTROL_STATEE @54
    _ZN3dig5input7KeyDownERNS0_22KEYBOARD_CONTROL_STATEE @55
    _ZN3dig5input7KeyLeftERNS0_22KEYBOARD_CONTROL_STATEE @56
    _ZN3dig5input8KeyRightERNS0_22KEYBOARD_CONTROL_STATEE @57
    _ZN3dig6CameraD1Ev @58
    _ZN3dig6CameraD2Ev @59
    _ZN3dig6Object12SetSpriteResEN2sf7Vector2IjEE @60
    _ZN3dig6Object12SetSpriteResEjj @61
    _ZN3dig6Object13DefineIntrectEjii @62
    _ZN3dig6Object15SetIntrectCountEj @63
    _ZN3dig6Object16SetSpriteOpacityEi @64
    _ZN3dig6Object16SetSpriteTextureERN2sf7TextureE @65
    _ZN3dig6Object17SetCurrentIntrectEj @66
    _ZN3dig6Object18CenterSpriteOriginEv @67
    _ZN3dig6Object4drawERN2sf12RenderWindowE @68
    _ZN3dig6Object6updateEv @69
    _ZN3dig6Object8SetLabelERKSs @70
    _ZN3dig6ObjectC1ERKSsN2sf7Vector2IjEERNS3_7TextureE @71
    _ZN3dig6ObjectC1Ev @72
    _ZN3dig6ObjectC2ERKSsN2sf7Vector2IjEERNS3_7TextureE @73
    _ZN3dig6ObjectC2Ev @74
    _ZN3dig6ObjectD1Ev @75
    _ZN3dig6ObjectD2Ev @76
    _ZN3dig7TextBox11StringToVarEv @77
    _ZN3dig7TextBox11VarToStringEf @78
    _ZN3dig7TextBox13GetTextObjectEv @79
    _ZN3dig7TextBox4drawERN2sf12RenderTargetE @80
    _ZN3dig7TextBox4loadERN2sf4FontE @81
    _ZN3dig7TextBox6updateEv @82
    _ZN3dig7TextBox9SetStringERKSs @83
    _ZN3dig7TextBoxC1Ev @84
    _ZN3dig7TextBoxC2Ev @85
    _ZN3dig7TextBoxD1Ev @86
    _ZN3dig7TileMap4loadERN2sf7TextureEPKiNS1_7Vector2IjEEjj @87
    _ZN3dig7TileMapD0Ev @88
    _ZN3dig7TileMapD1Ev @89
    _ZN3dig9Clickable13CheckForHoverEv @90
    _ZN3dig9Clickable17CheckForLeftClickEv @91
    _ZN3dig9Clickable18CheckForRightClickEv @92
    _ZN3dig9Clickable19CheckForMiddleClickEv @93
    _ZN9__gnu_cxx13new_allocatorIN2sf11SoundBufferEE10deallocateEPS2_j @94
    _ZN9__gnu_cxx13new_allocatorIN2sf11SoundBufferEE7destroyEPS2_ @95
    _ZN9__gnu_cxx13new_allocatorIN2sf11SoundBufferEE8allocateEjPKv @96
    _ZN9__gnu_cxx13new_allocatorIN2sf11SoundBufferEEC2Ev @97
    _ZN9__gnu_cxx13new_allocatorIN2sf11SoundBufferEED2Ev @98
    _ZN9__gnu_cxx13new_allocatorIN2sf4FontEE10deallocateEPS2_j @99
    _ZN9__gnu_cxx13new_allocatorIN2sf4FontEE7destroyEPS2_ @100
    _ZN9__gnu_cxx13new_allocatorIN2sf4FontEE8allocateEjPKv @101
    _ZN9__gnu_cxx13new_allocatorIN2sf4FontEEC2Ev @102
    _ZN9__gnu_cxx13new_allocatorIN2sf4FontEED2Ev @103
    _ZN9__gnu_cxx13new_allocatorIN2sf4RectIiEEE10deallocateEPS3_j @104
    _ZN9__gnu_cxx13new_allocatorIN2sf4RectIiEEE8allocateEjPKv @105
    _ZN9__gnu_cxx13new_allocatorIN2sf4RectIiEEEC2Ev @106
    _ZN9__gnu_cxx13new_allocatorIN2sf4RectIiEEED2Ev @107
    _ZN9__gnu_cxx13new_allocatorIN2sf4ViewEE10deallocateEPS2_j @108
    _ZN9__gnu_cxx13new_allocatorIN2sf4ViewEE8allocateEjPKv @109
    _ZN9__gnu_cxx13new_allocatorIN2sf4ViewEED2Ev @110
    _ZN9__gnu_cxx13new_allocatorIN2sf6VertexEE10deallocateEPS2_j @111
    _ZN9__gnu_cxx13new_allocatorIN2sf6VertexEED2Ev @112
    _ZN9__gnu_cxx13new_allocatorIN2sf7TextureEE10deallocateEPS2_j @113
    _ZN9__gnu_cxx13new_allocatorIN2sf7TextureEE7destroyEPS2_ @114
    _ZN9__gnu_cxx13new_allocatorIN2sf7TextureEE8allocateEjPKv @115
    _ZN9__gnu_cxx13new_allocatorIN2sf7TextureEEC2Ev @116
    _ZN9__gnu_cxx13new_allocatorIN2sf7TextureEED2Ev @117
    _ZN9__gnu_cxx13new_allocatorIcE10deallocateEPcj @118
    _ZN9__gnu_cxx13new_allocatorIcEC2Ev @119
    _ZN9__gnu_cxx13new_allocatorIjEC2ERKS1_ @120
    _ZN9__gnu_cxx13new_allocatorIjED2Ev @121
    _ZN9__gnu_cxx14__alloc_traitsISaIN2sf11SoundBufferEEE7destroyERS3_PS2_ @122
    _ZN9__gnu_cxx14__alloc_traitsISaIN2sf11SoundBufferEEE8max_sizeERKS3_ @123
    _ZN9__gnu_cxx14__alloc_traitsISaIN2sf4FontEEE7destroyERS3_PS2_ @124
    _ZN9__gnu_cxx14__alloc_traitsISaIN2sf4FontEEE8max_sizeERKS3_ @125
    _ZN9__gnu_cxx14__alloc_traitsISaIN2sf4RectIiEEEE8max_sizeERKS4_ @126
    _ZN9__gnu_cxx14__alloc_traitsISaIN2sf4ViewEEE8max_sizeERKS3_ @127
    _ZN9__gnu_cxx14__alloc_traitsISaIN2sf7TextureEEE7destroyERS3_PS2_ @128
    _ZN9__gnu_cxx14__alloc_traitsISaIN2sf7TextureEEE8max_sizeERKS3_ @129
    _ZN9__gnu_cxx17__normal_iteratorIPN2sf11SoundBufferESt6vectorIS2_SaIS2_EEEC1ERKS3_ @130
    _ZN9__gnu_cxx17__normal_iteratorIPN2sf4FontESt6vectorIS2_SaIS2_EEEC1ERKS3_ @131
    _ZN9__gnu_cxx17__normal_iteratorIPN2sf4RectIiEESt6vectorIS3_SaIS3_EEEC1ERKS4_ @132
    _ZN9__gnu_cxx17__normal_iteratorIPN2sf4ViewESt6vectorIS2_SaIS2_EEEC1ERKS3_ @133
    _ZN9__gnu_cxx17__normal_iteratorIPN2sf7TextureESt6vectorIS2_SaIS2_EEEC1ERKS3_ @134
    _ZN9__gnu_cxxmiIPN2sf11SoundBufferESt6vectorIS2_SaIS2_EEEENS_17__normal_iteratorIT_T0_E15difference_typeERKSA_SD_ @135
    _ZN9__gnu_cxxmiIPN2sf4FontESt6vectorIS2_SaIS2_EEEENS_17__normal_iteratorIT_T0_E15difference_typeERKSA_SD_ @136
    _ZN9__gnu_cxxmiIPN2sf4RectIiEESt6vectorIS3_SaIS3_EEEENS_17__normal_iteratorIT_T0_E15difference_typeERKSB_SE_ @137
    _ZN9__gnu_cxxmiIPN2sf4ViewESt6vectorIS2_SaIS2_EEEENS_17__normal_iteratorIT_T0_E15difference_typeERKSA_SD_ @138
    _ZN9__gnu_cxxmiIPN2sf7TextureESt6vectorIS2_SaIS2_EEEENS_17__normal_iteratorIT_T0_E15difference_typeERKSA_SD_ @139
    _ZN9__gnu_cxxneIPN2sf11SoundBufferESt6vectorIS2_SaIS2_EEEEbRKNS_17__normal_iteratorIT_T0_EESC_ @140
    _ZN9__gnu_cxxneIPN2sf4FontESt6vectorIS2_SaIS2_EEEEbRKNS_17__normal_iteratorIT_T0_EESC_ @141
    _ZN9__gnu_cxxneIPN2sf7TextureESt6vectorIS2_SaIS2_EEEEbRKNS_17__normal_iteratorIT_T0_EESC_ @142
    _ZNK2sf4RectIfE8containsEff @143
    _ZNK3dig7TileMap4drawERN2sf12RenderTargetENS1_12RenderStatesE @144
    _ZNK9__gnu_cxx13new_allocatorIN2sf11SoundBufferEE8max_sizeEv @145
    _ZNK9__gnu_cxx13new_allocatorIN2sf4FontEE8max_sizeEv @146
    _ZNK9__gnu_cxx13new_allocatorIN2sf4RectIiEEE8max_sizeEv @147
    _ZNK9__gnu_cxx13new_allocatorIN2sf4ViewEE8max_sizeEv @148
    _ZNK9__gnu_cxx13new_allocatorIN2sf7TextureEE8max_sizeEv @149
    _ZNK9__gnu_cxx17__normal_iteratorIPN2sf11SoundBufferESt6vectorIS2_SaIS2_EEE4baseEv @150
    _ZNK9__gnu_cxx17__normal_iteratorIPN2sf11SoundBufferESt6vectorIS2_SaIS2_EEEdeEv @151
    _ZNK9__gnu_cxx17__normal_iteratorIPN2sf11SoundBufferESt6vectorIS2_SaIS2_EEEmiERKi @152
    _ZNK9__gnu_cxx17__normal_iteratorIPN2sf11SoundBufferESt6vectorIS2_SaIS2_EEEplERKi @153
    _ZNK9__gnu_cxx17__normal_iteratorIPN2sf4FontESt6vectorIS2_SaIS2_EEE4baseEv @154
    _ZNK9__gnu_cxx17__normal_iteratorIPN2sf4FontESt6vectorIS2_SaIS2_EEEdeEv @155
    _ZNK9__gnu_cxx17__normal_iteratorIPN2sf4FontESt6vectorIS2_SaIS2_EEEmiERKi @156
    _ZNK9__gnu_cxx17__normal_iteratorIPN2sf4FontESt6vectorIS2_SaIS2_EEEplERKi @157
    _ZNK9__gnu_cxx17__normal_iteratorIPN2sf4RectIiEESt6vectorIS3_SaIS3_EEE4baseEv @158
    _ZNK9__gnu_cxx17__normal_iteratorIPN2sf4ViewESt6vectorIS2_SaIS2_EEE4baseEv @159
    _ZNK9__gnu_cxx17__normal_iteratorIPN2sf7TextureESt6vectorIS2_SaIS2_EEE4baseEv @160
    _ZNK9__gnu_cxx17__normal_iteratorIPN2sf7TextureESt6vectorIS2_SaIS2_EEEdeEv @161
    _ZNK9__gnu_cxx17__normal_iteratorIPN2sf7TextureESt6vectorIS2_SaIS2_EEEmiERKi @162
    _ZNK9__gnu_cxx17__normal_iteratorIPN2sf7TextureESt6vectorIS2_SaIS2_EEEplERKi @163
    _ZNKSbIjSt11char_traitsIjESaIjEE13get_allocatorEv @164
    _ZNKSbIjSt11char_traitsIjESaIjEE6_M_repEv @165
    _ZNKSbIjSt11char_traitsIjESaIjEE7_M_dataEv @166
    _ZNKSt12_Vector_baseIN2sf11SoundBufferESaIS1_EE19_M_get_Tp_allocatorEv @167
    _ZNKSt12_Vector_baseIN2sf4FontESaIS1_EE19_M_get_Tp_allocatorEv @168
    _ZNKSt12_Vector_baseIN2sf4RectIiEESaIS2_EE19_M_get_Tp_allocatorEv @169
    _ZNKSt12_Vector_baseIN2sf4ViewESaIS1_EE19_M_get_Tp_allocatorEv @170
    _ZNKSt12_Vector_baseIN2sf7TextureESaIS1_EE19_M_get_Tp_allocatorEv @171
    _ZNKSt6vectorIN2sf11SoundBufferESaIS1_EE12_M_check_lenEjPKc @172
    _ZNKSt6vectorIN2sf11SoundBufferESaIS1_EE4sizeEv @173
    _ZNKSt6vectorIN2sf11SoundBufferESaIS1_EE8max_sizeEv @174
    _ZNKSt6vectorIN2sf4FontESaIS1_EE12_M_check_lenEjPKc @175
    _ZNKSt6vectorIN2sf4FontESaIS1_EE4sizeEv @176
    _ZNKSt6vectorIN2sf4FontESaIS1_EE8max_sizeEv @177
    _ZNKSt6vectorIN2sf4RectIiEESaIS2_EE12_M_check_lenEjPKc @178
    _ZNKSt6vectorIN2sf4RectIiEESaIS2_EE4sizeEv @179
    _ZNKSt6vectorIN2sf4RectIiEESaIS2_EE8max_sizeEv @180
    _ZNKSt6vectorIN2sf4ViewESaIS1_EE12_M_check_lenEjPKc @181
    _ZNKSt6vectorIN2sf4ViewESaIS1_EE4sizeEv @182
    _ZNKSt6vectorIN2sf4ViewESaIS1_EE8max_sizeEv @183
    _ZNKSt6vectorIN2sf7TextureESaIS1_EE12_M_check_lenEjPKc @184
    _ZNKSt6vectorIN2sf7TextureESaIS1_EE4sizeEv @185
    _ZNKSt6vectorIN2sf7TextureESaIS1_EE8max_sizeEv @186
    _ZNSaIN2sf11SoundBufferEEC2Ev @187
    _ZNSaIN2sf11SoundBufferEED2Ev @188
    _ZNSaIN2sf4FontEEC2Ev @189
    _ZNSaIN2sf4FontEED2Ev @190
    _ZNSaIN2sf4RectIiEEEC2Ev @191
    _ZNSaIN2sf4RectIiEEED2Ev @192
    _ZNSaIN2sf4ViewEED2Ev @193
    _ZNSaIN2sf6VertexEED2Ev @194
    _ZNSaIN2sf7TextureEEC2Ev @195
    _ZNSaIN2sf7TextureEED2Ev @196
    _ZNSaIcEC1IjEERKSaIT_E @197
    _ZNSaIjEC1ERKS_ @198
    _ZNSaIjED1Ev @199
    _ZNSaIjED2Ev @200
    _ZNSbIjSt11char_traitsIjESaIjEE12_Alloc_hiderD1Ev @201
    _ZNSbIjSt11char_traitsIjESaIjEE4_Rep10_M_destroyERKS1_ @202
    _ZNSbIjSt11char_traitsIjESaIjEE4_Rep10_M_disposeERKS1_ @203
    _ZNSbIjSt11char_traitsIjESaIjEED1Ev @204
    _ZNSt10_Iter_baseIN9__gnu_cxx17__normal_iteratorIPN2sf11SoundBufferESt6vectorIS3_SaIS3_EEEELb0EE7_S_baseES8_ @205
    _ZNSt10_Iter_baseIN9__gnu_cxx17__normal_iteratorIPN2sf11SoundBufferESt6vectorIS3_SaIS3_EEEELb1EE7_S_baseES8_ @206
    _ZNSt10_Iter_baseIN9__gnu_cxx17__normal_iteratorIPN2sf4FontESt6vectorIS3_SaIS3_EEEELb0EE7_S_baseES8_ @207
    _ZNSt10_Iter_baseIN9__gnu_cxx17__normal_iteratorIPN2sf4FontESt6vectorIS3_SaIS3_EEEELb1EE7_S_baseES8_ @208
    _ZNSt10_Iter_baseIN9__gnu_cxx17__normal_iteratorIPN2sf7TextureESt6vectorIS3_SaIS3_EEEELb0EE7_S_baseES8_ @209
    _ZNSt10_Iter_baseIN9__gnu_cxx17__normal_iteratorIPN2sf7TextureESt6vectorIS3_SaIS3_EEEELb1EE7_S_baseES8_ @210
    _ZNSt10_Iter_baseIPN2sf11SoundBufferELb0EE7_S_baseES2_ @211
    _ZNSt10_Iter_baseIPN2sf4FontELb0EE7_S_baseES2_ @212
    _ZNSt10_Iter_baseIPN2sf4RectIiEELb0EE7_S_baseES3_ @213
    _ZNSt10_Iter_baseIPN2sf4ViewELb0EE7_S_baseES2_ @214
    _ZNSt10_Iter_baseIPN2sf7TextureELb0EE7_S_baseES2_ @215
    _ZNSt11__copy_moveILb0ELb0ESt26random_access_iterator_tagE8__copy_mIPN2sf11SoundBufferES5_EET0_T_S7_S6_ @216
    _ZNSt11__copy_moveILb0ELb0ESt26random_access_iterator_tagE8__copy_mIPN2sf4FontES5_EET0_T_S7_S6_ @217
    _ZNSt11__copy_moveILb0ELb0ESt26random_access_iterator_tagE8__copy_mIPN2sf7TextureES5_EET0_T_S7_S6_ @218
    _ZNSt12_Destroy_auxILb0EE9__destroyIPN2sf11SoundBufferEEEvT_S5_ @219
    _ZNSt12_Destroy_auxILb0EE9__destroyIPN2sf4FontEEEvT_S5_ @220
    _ZNSt12_Destroy_auxILb0EE9__destroyIPN2sf7TextureEEEvT_S5_ @221
    _ZNSt12_Destroy_auxILb1EE9__destroyIPN2sf4RectIiEEEEvT_S6_ @222
    _ZNSt12_Destroy_auxILb1EE9__destroyIPN2sf4ViewEEEvT_S5_ @223
    _ZNSt12_Destroy_auxILb1EE9__destroyIPN2sf6VertexEEEvT_S5_ @224
    _ZNSt12_Vector_baseIN2sf11SoundBufferESaIS1_EE11_M_allocateEj @225
    _ZNSt12_Vector_baseIN2sf11SoundBufferESaIS1_EE12_Vector_implC1Ev @226
    _ZNSt12_Vector_baseIN2sf11SoundBufferESaIS1_EE12_Vector_implD1Ev @227
    _ZNSt12_Vector_baseIN2sf11SoundBufferESaIS1_EE13_M_deallocateEPS1_j @228
    _ZNSt12_Vector_baseIN2sf11SoundBufferESaIS1_EE19_M_get_Tp_allocatorEv @229
    _ZNSt12_Vector_baseIN2sf11SoundBufferESaIS1_EEC2Ev @230
    _ZNSt12_Vector_baseIN2sf11SoundBufferESaIS1_EED2Ev @231
    _ZNSt12_Vector_baseIN2sf4FontESaIS1_EE11_M_allocateEj @232
    _ZNSt12_Vector_baseIN2sf4FontESaIS1_EE12_Vector_implC1Ev @233
    _ZNSt12_Vector_baseIN2sf4FontESaIS1_EE12_Vector_implD1Ev @234
    _ZNSt12_Vector_baseIN2sf4FontESaIS1_EE13_M_deallocateEPS1_j @235
    _ZNSt12_Vector_baseIN2sf4FontESaIS1_EE19_M_get_Tp_allocatorEv @236
    _ZNSt12_Vector_baseIN2sf4FontESaIS1_EEC2Ev @237
    _ZNSt12_Vector_baseIN2sf4FontESaIS1_EED2Ev @238
    _ZNSt12_Vector_baseIN2sf4RectIiEESaIS2_EE11_M_allocateEj @239
    _ZNSt12_Vector_baseIN2sf4RectIiEESaIS2_EE12_Vector_implC1Ev @240
    _ZNSt12_Vector_baseIN2sf4RectIiEESaIS2_EE12_Vector_implD1Ev @241
    _ZNSt12_Vector_baseIN2sf4RectIiEESaIS2_EE13_M_deallocateEPS2_j @242
    _ZNSt12_Vector_baseIN2sf4RectIiEESaIS2_EE19_M_get_Tp_allocatorEv @243
    _ZNSt12_Vector_baseIN2sf4RectIiEESaIS2_EEC2Ev @244
    _ZNSt12_Vector_baseIN2sf4RectIiEESaIS2_EED2Ev @245
    _ZNSt12_Vector_baseIN2sf4ViewESaIS1_EE11_M_allocateEj @246
    _ZNSt12_Vector_baseIN2sf4ViewESaIS1_EE12_Vector_implD1Ev @247
    _ZNSt12_Vector_baseIN2sf4ViewESaIS1_EE13_M_deallocateEPS1_j @248
    _ZNSt12_Vector_baseIN2sf4ViewESaIS1_EE19_M_get_Tp_allocatorEv @249
    _ZNSt12_Vector_baseIN2sf4ViewESaIS1_EED2Ev @250
    _ZNSt12_Vector_baseIN2sf6VertexESaIS1_EE12_Vector_implD1Ev @251
    _ZNSt12_Vector_baseIN2sf6VertexESaIS1_EE13_M_deallocateEPS1_j @252
    _ZNSt12_Vector_baseIN2sf6VertexESaIS1_EE19_M_get_Tp_allocatorEv @253
    _ZNSt12_Vector_baseIN2sf6VertexESaIS1_EED2Ev @254
    _ZNSt12_Vector_baseIN2sf7TextureESaIS1_EE11_M_allocateEj @255
    _ZNSt12_Vector_baseIN2sf7TextureESaIS1_EE12_Vector_implC1Ev @256
    _ZNSt12_Vector_baseIN2sf7TextureESaIS1_EE12_Vector_implD1Ev @257
    _ZNSt12_Vector_baseIN2sf7TextureESaIS1_EE13_M_deallocateEPS1_j @258
    _ZNSt12_Vector_baseIN2sf7TextureESaIS1_EE19_M_get_Tp_allocatorEv @259
    _ZNSt12_Vector_baseIN2sf7TextureESaIS1_EEC2Ev @260
    _ZNSt12_Vector_baseIN2sf7TextureESaIS1_EED2Ev @261
    _ZNSt20__copy_move_backwardILb0ELb0ESt26random_access_iterator_tagE13__copy_move_bIPN2sf11SoundBufferES5_EET0_T_S7_S6_ @262
    _ZNSt20__copy_move_backwardILb0ELb0ESt26random_access_iterator_tagE13__copy_move_bIPN2sf4FontES5_EET0_T_S7_S6_ @263
    _ZNSt20__copy_move_backwardILb0ELb0ESt26random_access_iterator_tagE13__copy_move_bIPN2sf4RectIiEES6_EET0_T_S8_S7_ @264
    _ZNSt20__copy_move_backwardILb0ELb0ESt26random_access_iterator_tagE13__copy_move_bIPN2sf4ViewES5_EET0_T_S7_S6_ @265
    _ZNSt20__copy_move_backwardILb0ELb0ESt26random_access_iterator_tagE13__copy_move_bIPN2sf7TextureES5_EET0_T_S7_S6_ @266
    _ZNSt20__uninitialized_copyILb0EE13__uninit_copyIPN2sf11SoundBufferES4_EET0_T_S6_S5_ @267
    _ZNSt20__uninitialized_copyILb0EE13__uninit_copyIPN2sf4FontES4_EET0_T_S6_S5_ @268
    _ZNSt20__uninitialized_copyILb0EE13__uninit_copyIPN2sf4RectIiEES5_EET0_T_S7_S6_ @269
    _ZNSt20__uninitialized_copyILb0EE13__uninit_copyIPN2sf4ViewES4_EET0_T_S6_S5_ @270
    _ZNSt20__uninitialized_copyILb0EE13__uninit_copyIPN2sf7TextureES4_EET0_T_S6_S5_ @271
    _ZNSt22__uninitialized_fill_nILb0EE15__uninit_fill_nIPN2sf11SoundBufferEjS3_EEvT_T0_RKT1_ @272
    _ZNSt22__uninitialized_fill_nILb0EE15__uninit_fill_nIPN2sf4FontEjS3_EEvT_T0_RKT1_ @273
    _ZNSt22__uninitialized_fill_nILb0EE15__uninit_fill_nIPN2sf4RectIiEEjS4_EEvT_T0_RKT1_ @274
    _ZNSt22__uninitialized_fill_nILb0EE15__uninit_fill_nIPN2sf4ViewEjS3_EEvT_T0_RKT1_ @275
    _ZNSt22__uninitialized_fill_nILb0EE15__uninit_fill_nIPN2sf7TextureEjS3_EEvT_T0_RKT1_ @276
    _ZNSt6vectorIN2sf11SoundBufferESaIS1_EE14_M_fill_insertEN9__gnu_cxx17__normal_iteratorIPS1_S3_EEjRKS1_ @277
    _ZNSt6vectorIN2sf11SoundBufferESaIS1_EE15_M_erase_at_endEPS1_ @278
    _ZNSt6vectorIN2sf11SoundBufferESaIS1_EE3endEv @279
    _ZNSt6vectorIN2sf11SoundBufferESaIS1_EE4backEv @280
    _ZNSt6vectorIN2sf11SoundBufferESaIS1_EE5beginEv @281
    _ZNSt6vectorIN2sf11SoundBufferESaIS1_EE5eraseEN9__gnu_cxx17__normal_iteratorIPS1_S3_EE @282
    _ZNSt6vectorIN2sf11SoundBufferESaIS1_EE6insertEN9__gnu_cxx17__normal_iteratorIPS1_S3_EEjRKS1_ @283
    _ZNSt6vectorIN2sf11SoundBufferESaIS1_EE6resizeEjS1_ @284
    _ZNSt6vectorIN2sf11SoundBufferESaIS1_EEC1Ev @285
    _ZNSt6vectorIN2sf11SoundBufferESaIS1_EED1Ev @286
    _ZNSt6vectorIN2sf11SoundBufferESaIS1_EEixEj @287
    _ZNSt6vectorIN2sf4FontESaIS1_EE14_M_fill_insertEN9__gnu_cxx17__normal_iteratorIPS1_S3_EEjRKS1_ @288
    _ZNSt6vectorIN2sf4FontESaIS1_EE15_M_erase_at_endEPS1_ @289
    _ZNSt6vectorIN2sf4FontESaIS1_EE3endEv @290
    _ZNSt6vectorIN2sf4FontESaIS1_EE4backEv @291
    _ZNSt6vectorIN2sf4FontESaIS1_EE5beginEv @292
    _ZNSt6vectorIN2sf4FontESaIS1_EE5eraseEN9__gnu_cxx17__normal_iteratorIPS1_S3_EE @293
    _ZNSt6vectorIN2sf4FontESaIS1_EE6insertEN9__gnu_cxx17__normal_iteratorIPS1_S3_EEjRKS1_ @294
    _ZNSt6vectorIN2sf4FontESaIS1_EE6resizeEjS1_ @295
    _ZNSt6vectorIN2sf4FontESaIS1_EEC1Ev @296
    _ZNSt6vectorIN2sf4FontESaIS1_EED1Ev @297
    _ZNSt6vectorIN2sf4FontESaIS1_EEixEj @298
    _ZNSt6vectorIN2sf4RectIiEESaIS2_EE14_M_fill_insertEN9__gnu_cxx17__normal_iteratorIPS2_S4_EEjRKS2_ @299
    _ZNSt6vectorIN2sf4RectIiEESaIS2_EE15_M_erase_at_endEPS2_ @300
    _ZNSt6vectorIN2sf4RectIiEESaIS2_EE3endEv @301
    _ZNSt6vectorIN2sf4RectIiEESaIS2_EE5beginEv @302
    _ZNSt6vectorIN2sf4RectIiEESaIS2_EE6insertEN9__gnu_cxx17__normal_iteratorIPS2_S4_EEjRKS2_ @303
    _ZNSt6vectorIN2sf4RectIiEESaIS2_EE6resizeEjS2_ @304
    _ZNSt6vectorIN2sf4RectIiEESaIS2_EEC1Ev @305
    _ZNSt6vectorIN2sf4RectIiEESaIS2_EED1Ev @306
    _ZNSt6vectorIN2sf4RectIiEESaIS2_EEixEj @307
    _ZNSt6vectorIN2sf4ViewESaIS1_EE14_M_fill_insertEN9__gnu_cxx17__normal_iteratorIPS1_S3_EEjRKS1_ @308
    _ZNSt6vectorIN2sf4ViewESaIS1_EE15_M_erase_at_endEPS1_ @309
    _ZNSt6vectorIN2sf4ViewESaIS1_EE3endEv @310
    _ZNSt6vectorIN2sf4ViewESaIS1_EE5beginEv @311
    _ZNSt6vectorIN2sf4ViewESaIS1_EE6insertEN9__gnu_cxx17__normal_iteratorIPS1_S3_EEjRKS1_ @312
    _ZNSt6vectorIN2sf4ViewESaIS1_EE6resizeEjS1_ @313
    _ZNSt6vectorIN2sf4ViewESaIS1_EED1Ev @314
    _ZNSt6vectorIN2sf6VertexESaIS1_EED1Ev @315
    _ZNSt6vectorIN2sf7TextureESaIS1_EE14_M_fill_insertEN9__gnu_cxx17__normal_iteratorIPS1_S3_EEjRKS1_ @316
    _ZNSt6vectorIN2sf7TextureESaIS1_EE15_M_erase_at_endEPS1_ @317
    _ZNSt6vectorIN2sf7TextureESaIS1_EE3endEv @318
    _ZNSt6vectorIN2sf7TextureESaIS1_EE4backEv @319
    _ZNSt6vectorIN2sf7TextureESaIS1_EE5beginEv @320
    _ZNSt6vectorIN2sf7TextureESaIS1_EE5eraseEN9__gnu_cxx17__normal_iteratorIPS1_S3_EE @321
    _ZNSt6vectorIN2sf7TextureESaIS1_EE6insertEN9__gnu_cxx17__normal_iteratorIPS1_S3_EEjRKS1_ @322
    _ZNSt6vectorIN2sf7TextureESaIS1_EE6resizeEjS1_ @323
    _ZNSt6vectorIN2sf7TextureESaIS1_EEC1Ev @324
    _ZNSt6vectorIN2sf7TextureESaIS1_EED1Ev @325
    _ZNSt6vectorIN2sf7TextureESaIS1_EEixEj @326
    _ZSt10_ConstructIN2sf11SoundBufferES1_EvPT_RKT0_ @327
    _ZSt10_ConstructIN2sf4FontES1_EvPT_RKT0_ @328
    _ZSt10_ConstructIN2sf4RectIiEES2_EvPT_RKT0_ @329
    _ZSt10_ConstructIN2sf4ViewES1_EvPT_RKT0_ @330
    _ZSt10_ConstructIN2sf7TextureES1_EvPT_RKT0_ @331
    _ZSt11__addressofIN2sf11SoundBufferEEPT_RS2_ @332
    _ZSt11__addressofIN2sf4FontEEPT_RS2_ @333
    _ZSt11__addressofIN2sf4RectIiEEEPT_RS3_ @334
    _ZSt11__addressofIN2sf4ViewEEPT_RS2_ @335
    _ZSt11__addressofIN2sf7TextureEEPT_RS2_ @336
    _ZSt12__miter_baseIN9__gnu_cxx17__normal_iteratorIPN2sf11SoundBufferESt6vectorIS3_SaIS3_EEEEENSt11_Miter_baseIT_E13iterator_typeESA_ @337
    _ZSt12__miter_baseIN9__gnu_cxx17__normal_iteratorIPN2sf4FontESt6vectorIS3_SaIS3_EEEEENSt11_Miter_baseIT_E13iterator_typeESA_ @338
    _ZSt12__miter_baseIN9__gnu_cxx17__normal_iteratorIPN2sf7TextureESt6vectorIS3_SaIS3_EEEEENSt11_Miter_baseIT_E13iterator_typeESA_ @339
    _ZSt12__miter_baseIPN2sf11SoundBufferEENSt11_Miter_baseIT_E13iterator_typeES4_ @340
    _ZSt12__miter_baseIPN2sf4FontEENSt11_Miter_baseIT_E13iterator_typeES4_ @341
    _ZSt12__miter_baseIPN2sf4RectIiEEENSt11_Miter_baseIT_E13iterator_typeES5_ @342
    _ZSt12__miter_baseIPN2sf4ViewEENSt11_Miter_baseIT_E13iterator_typeES4_ @343
    _ZSt12__miter_baseIPN2sf7TextureEENSt11_Miter_baseIT_E13iterator_typeES4_ @344
    _ZSt12__niter_baseIN9__gnu_cxx17__normal_iteratorIPN2sf11SoundBufferESt6vectorIS3_SaIS3_EEEEENSt11_Niter_baseIT_E13iterator_typeESA_ @345
    _ZSt12__niter_baseIN9__gnu_cxx17__normal_iteratorIPN2sf4FontESt6vectorIS3_SaIS3_EEEEENSt11_Niter_baseIT_E13iterator_typeESA_ @346
    _ZSt12__niter_baseIN9__gnu_cxx17__normal_iteratorIPN2sf7TextureESt6vectorIS3_SaIS3_EEEEENSt11_Niter_baseIT_E13iterator_typeESA_ @347
    _ZSt12__niter_baseIPN2sf11SoundBufferEENSt11_Niter_baseIT_E13iterator_typeES4_ @348
    _ZSt12__niter_baseIPN2sf4FontEENSt11_Niter_baseIT_E13iterator_typeES4_ @349
    _ZSt12__niter_baseIPN2sf4RectIiEEENSt11_Niter_baseIT_E13iterator_typeES5_ @350
    _ZSt12__niter_baseIPN2sf4ViewEENSt11_Niter_baseIT_E13iterator_typeES4_ @351
    _ZSt12__niter_baseIPN2sf7TextureEENSt11_Niter_baseIT_E13iterator_typeES4_ @352
    _ZSt13__copy_move_aILb0EPN2sf11SoundBufferES2_ET1_T0_S4_S3_ @353
    _ZSt13__copy_move_aILb0EPN2sf4FontES2_ET1_T0_S4_S3_ @354
    _ZSt13__copy_move_aILb0EPN2sf7TextureES2_ET1_T0_S4_S3_ @355
    _ZSt13copy_backwardIPN2sf11SoundBufferES2_ET0_T_S4_S3_ @356
    _ZSt13copy_backwardIPN2sf4FontES2_ET0_T_S4_S3_ @357
    _ZSt13copy_backwardIPN2sf4RectIiEES3_ET0_T_S5_S4_ @358
    _ZSt13copy_backwardIPN2sf4ViewES2_ET0_T_S4_S3_ @359
    _ZSt13copy_backwardIPN2sf7TextureES2_ET0_T_S4_S3_ @360
    _ZSt14__copy_move_a2ILb0EN9__gnu_cxx17__normal_iteratorIPN2sf11SoundBufferESt6vectorIS3_SaIS3_EEEES8_ET1_T0_SA_S9_ @361
    _ZSt14__copy_move_a2ILb0EN9__gnu_cxx17__normal_iteratorIPN2sf4FontESt6vectorIS3_SaIS3_EEEES8_ET1_T0_SA_S9_ @362
    _ZSt14__copy_move_a2ILb0EN9__gnu_cxx17__normal_iteratorIPN2sf7TextureESt6vectorIS3_SaIS3_EEEES8_ET1_T0_SA_S9_ @363
    _ZSt18uninitialized_copyIPN2sf11SoundBufferES2_ET0_T_S4_S3_ @364
    _ZSt18uninitialized_copyIPN2sf4FontES2_ET0_T_S4_S3_ @365
    _ZSt18uninitialized_copyIPN2sf4RectIiEES3_ET0_T_S5_S4_ @366
    _ZSt18uninitialized_copyIPN2sf4ViewES2_ET0_T_S4_S3_ @367
    _ZSt18uninitialized_copyIPN2sf7TextureES2_ET0_T_S4_S3_ @368
    _ZSt20uninitialized_fill_nIPN2sf11SoundBufferEjS1_EvT_T0_RKT1_ @369
    _ZSt20uninitialized_fill_nIPN2sf4FontEjS1_EvT_T0_RKT1_ @370
    _ZSt20uninitialized_fill_nIPN2sf4RectIiEEjS2_EvT_T0_RKT1_ @371
    _ZSt20uninitialized_fill_nIPN2sf4ViewEjS1_EvT_T0_RKT1_ @372
    _ZSt20uninitialized_fill_nIPN2sf7TextureEjS1_EvT_T0_RKT1_ @373
    _ZSt22__copy_move_backward_aILb0EPN2sf11SoundBufferES2_ET1_T0_S4_S3_ @374
    _ZSt22__copy_move_backward_aILb0EPN2sf4FontES2_ET1_T0_S4_S3_ @375
    _ZSt22__copy_move_backward_aILb0EPN2sf4RectIiEES3_ET1_T0_S5_S4_ @376
    _ZSt22__copy_move_backward_aILb0EPN2sf4ViewES2_ET1_T0_S4_S3_ @377
    _ZSt22__copy_move_backward_aILb0EPN2sf7TextureES2_ET1_T0_S4_S3_ @378
    _ZSt22__uninitialized_copy_aIPN2sf11SoundBufferES2_S1_ET0_T_S4_S3_RSaIT1_E @379
    _ZSt22__uninitialized_copy_aIPN2sf4FontES2_S1_ET0_T_S4_S3_RSaIT1_E @380
    _ZSt22__uninitialized_copy_aIPN2sf4RectIiEES3_S2_ET0_T_S5_S4_RSaIT1_E @381
    _ZSt22__uninitialized_copy_aIPN2sf4ViewES2_S1_ET0_T_S4_S3_RSaIT1_E @382
    _ZSt22__uninitialized_copy_aIPN2sf7TextureES2_S1_ET0_T_S4_S3_RSaIT1_E @383
    _ZSt22__uninitialized_move_aIPN2sf11SoundBufferES2_SaIS1_EET0_T_S5_S4_RT1_ @384
    _ZSt22__uninitialized_move_aIPN2sf4FontES2_SaIS1_EET0_T_S5_S4_RT1_ @385
    _ZSt22__uninitialized_move_aIPN2sf4RectIiEES3_SaIS2_EET0_T_S6_S5_RT1_ @386
    _ZSt22__uninitialized_move_aIPN2sf4ViewES2_SaIS1_EET0_T_S5_S4_RT1_ @387
    _ZSt22__uninitialized_move_aIPN2sf7TextureES2_SaIS1_EET0_T_S5_S4_RT1_ @388
    _ZSt23__copy_move_backward_a2ILb0EPN2sf11SoundBufferES2_ET1_T0_S4_S3_ @389
    _ZSt23__copy_move_backward_a2ILb0EPN2sf4FontES2_ET1_T0_S4_S3_ @390
    _ZSt23__copy_move_backward_a2ILb0EPN2sf4RectIiEES3_ET1_T0_S5_S4_ @391
    _ZSt23__copy_move_backward_a2ILb0EPN2sf4ViewES2_ET1_T0_S4_S3_ @392
    _ZSt23__copy_move_backward_a2ILb0EPN2sf7TextureES2_ET1_T0_S4_S3_ @393
    _ZSt24__uninitialized_fill_n_aIPN2sf11SoundBufferEjS1_S1_EvT_T0_RKT1_RSaIT2_E @394
    _ZSt24__uninitialized_fill_n_aIPN2sf4FontEjS1_S1_EvT_T0_RKT1_RSaIT2_E @395
    _ZSt24__uninitialized_fill_n_aIPN2sf4RectIiEEjS2_S2_EvT_T0_RKT1_RSaIT2_E @396
    _ZSt24__uninitialized_fill_n_aIPN2sf4ViewEjS1_S1_EvT_T0_RKT1_RSaIT2_E @397
    _ZSt24__uninitialized_fill_n_aIPN2sf7TextureEjS1_S1_EvT_T0_RKT1_RSaIT2_E @398
    _ZSt34__uninitialized_move_if_noexcept_aIPN2sf11SoundBufferES2_SaIS1_EET0_T_S5_S4_RT1_ @399
    _ZSt34__uninitialized_move_if_noexcept_aIPN2sf4FontES2_SaIS1_EET0_T_S5_S4_RT1_ @400
    _ZSt34__uninitialized_move_if_noexcept_aIPN2sf4RectIiEES3_SaIS2_EET0_T_S6_S5_RT1_ @401
    _ZSt34__uninitialized_move_if_noexcept_aIPN2sf4ViewES2_SaIS1_EET0_T_S5_S4_RT1_ @402
    _ZSt34__uninitialized_move_if_noexcept_aIPN2sf7TextureES2_SaIS1_EET0_T_S5_S4_RT1_ @403
    _ZSt3maxIfERKT_S2_S2_ @404
    _ZSt3maxIjERKT_S2_S2_ @405
    _ZSt3minIfERKT_S2_S2_ @406
    _ZSt4copyIN9__gnu_cxx17__normal_iteratorIPN2sf11SoundBufferESt6vectorIS3_SaIS3_EEEES8_ET0_T_SA_S9_ @407
    _ZSt4copyIN9__gnu_cxx17__normal_iteratorIPN2sf4FontESt6vectorIS3_SaIS3_EEEES8_ET0_T_SA_S9_ @408
    _ZSt4copyIN9__gnu_cxx17__normal_iteratorIPN2sf7TextureESt6vectorIS3_SaIS3_EEEES8_ET0_T_SA_S9_ @409
    _ZSt4fillIPN2sf11SoundBufferES1_EvT_S3_RKT0_ @410
    _ZSt4fillIPN2sf4FontES1_EvT_S3_RKT0_ @411
    _ZSt4fillIPN2sf4RectIiEES2_EvT_S4_RKT0_ @412
    _ZSt4fillIPN2sf4ViewES1_EvT_S3_RKT0_ @413
    _ZSt4fillIPN2sf7TextureES1_EvT_S3_RKT0_ @414
    _ZSt8_DestroyIN2sf11SoundBufferEEvPT_ @415
    _ZSt8_DestroyIN2sf4FontEEvPT_ @416
    _ZSt8_DestroyIN2sf7TextureEEvPT_ @417
    _ZSt8_DestroyIPN2sf11SoundBufferEEvT_S3_ @418
    _ZSt8_DestroyIPN2sf11SoundBufferES1_EvT_S3_RSaIT0_E @419
    _ZSt8_DestroyIPN2sf4FontEEvT_S3_ @420
    _ZSt8_DestroyIPN2sf4FontES1_EvT_S3_RSaIT0_E @421
    _ZSt8_DestroyIPN2sf4RectIiEEEvT_S4_ @422
    _ZSt8_DestroyIPN2sf4RectIiEES2_EvT_S4_RSaIT0_E @423
    _ZSt8_DestroyIPN2sf4ViewEEvT_S3_ @424
    _ZSt8_DestroyIPN2sf4ViewES1_EvT_S3_RSaIT0_E @425
    _ZSt8_DestroyIPN2sf6VertexEEvT_S3_ @426
    _ZSt8_DestroyIPN2sf6VertexES1_EvT_S3_RSaIT0_E @427
    _ZSt8_DestroyIPN2sf7TextureEEvT_S3_ @428
    _ZSt8_DestroyIPN2sf7TextureES1_EvT_S3_RSaIT0_E @429
    _ZSt8__fill_aIPN2sf11SoundBufferES1_EN9__gnu_cxx11__enable_ifIXntsrSt11__is_scalarIT0_E7__valueEvE6__typeET_SA_RKS6_ @430
    _ZSt8__fill_aIPN2sf4FontES1_EN9__gnu_cxx11__enable_ifIXntsrSt11__is_scalarIT0_E7__valueEvE6__typeET_SA_RKS6_ @431
    _ZSt8__fill_aIPN2sf4RectIiEES2_EN9__gnu_cxx11__enable_ifIXntsrSt11__is_scalarIT0_E7__valueEvE6__typeET_SB_RKS7_ @432
    _ZSt8__fill_aIPN2sf4ViewES1_EN9__gnu_cxx11__enable_ifIXntsrSt11__is_scalarIT0_E7__valueEvE6__typeET_SA_RKS6_ @433
    _ZSt8__fill_aIPN2sf7TextureES1_EN9__gnu_cxx11__enable_ifIXntsrSt11__is_scalarIT0_E7__valueEvE6__typeET_SA_RKS6_ @434
    _ZTIN2sf13TransformableE @435 DATA
    _ZTIN2sf8DrawableE @436 DATA
    _ZTIN3dig6ObjectE @437 DATA
    _ZTIN3dig7TileMapE @438 DATA
    _ZTSN2sf13TransformableE @439 DATA
    _ZTSN2sf8DrawableE @440 DATA
    _ZTSN3dig6ObjectE @441 DATA
    _ZTSN3dig7TileMapE @442 DATA
    _ZTVN3dig6ObjectE @443 DATA
    _ZTVN3dig7TileMapE @444 DATA
    _ZThn4_N2sf4TextD1Ev @445
    _ZThn4_N2sf6SpriteD1Ev @446
    _ZThn4_N3dig7TileMapD0Ev @447
    _ZThn4_N3dig7TileMapD1Ev @448
    _ZdlPvS_ @449
    _ZnwjPv @450
    _get_output_format @451
    _nm___ZN2sf12RenderStates7DefaultE @452 DATA
    _nm___ZN2sf5Color5BlackE @453 DATA
    _nm___ZN2sf5Color5WhiteE @454 DATA
    _nm___ZTVN2sf11VertexArrayE @455 DATA
    _nm___ZTVN2sf4TextE @456 DATA
    _nm___ZTVN2sf6SpriteE @457 DATA
    _nm___ZTVN2sf8DrawableE @458 DATA
    main @459
